; Function Attrs: mustprogress nounwind uwtable
define dso_local void @_ZN5clang10LambdaExprC2ENS_4Stmt10EmptyShellEj(ptr noundef nonnull writeonly align 8 captures(none) dereferenceable(32) initializes((0, 1), (4, 6), (8, 32)) %0, i32 noundef %1) unnamed_addr #4 align 2 {
  store i8 51, ptr %0, align 8
  %3 = load i8, ptr @_ZN5clang4Stmt17StatisticsEnabledE, align 1
  %4 = trunc i8 %3 to i1
  br i1 %4, label %5, label %_ZN5clang4ExprC2ENS_4Stmt9StmtClassENS1_10EmptyShellE.exit

5:                                                ; preds = %2
  tail call void @_ZN5clang4Stmt12addStmtClassENS0_9StmtClassE(i32 noundef 51) #16
  br label %_ZN5clang4ExprC2ENS_4Stmt9StmtClassENS1_10EmptyShellE.exit

_ZN5clang4ExprC2ENS_4Stmt9StmtClassENS1_10EmptyShellE.exit: ; preds = %2, %5
  %6 = getelementptr inbounds nuw i8, ptr %0, i64 8
  %7 = getelementptr inbounds nuw i8, ptr %0, i64 4
  %8 = trunc i32 %1 to i16
  tail call void @llvm.memset.p0.i64(ptr noundef nonnull align 8 dereferenceable(24) %6, i8 0, i64 24, i1 false)
  store i16 %8, ptr %7, align 4
  %9 = getelementptr inbounds nuw i8, ptr %0, i64 32
  %10 = zext i32 %1 to i64
  %11 = getelementptr inbounds nuw ptr, ptr %9, i64 %10
  store ptr null, ptr %11, align 8
  ret void
}